target datalayout = "e-m:e-p270:32:32-p271:32:32-p272:64:64-i64:64-i128:128-f80:128-n8:16:32:64-S128"
target triple = "x86_64-pc-linux-gnu"

%"class.vcg::Color4" = type { %"class.vcg::Point4" }
%"class.vcg::Point4" = type { [4 x i8] }
%"class.vcg::Point3" = type { [3 x float] }
%"class.__gnu_cxx::__normal_iterator.249" = type { ptr }
%"struct.std::pair.247" = type { %"class.vcg::Point3", %"class.vcg::Color4" }
%"struct.std::_Vector_base.195" = type { %"struct.std::_Vector_base<std::pair<vcg::Point3<float>, vcg::Color4<unsigned char>>, std::allocator<std::pair<vcg::Point3<float>, vcg::Color4<unsigned char>>>>::_Vector_impl" }
%"struct.std::_Vector_base<std::pair<vcg::Point3<float>, vcg::Color4<unsigned char>>, std::allocator<std::pair<vcg::Point3<float>, vcg::Color4<unsigned char>>>>::_Vector_impl" = type { %"struct.std::_Vector_base<std::pair<vcg::Point3<float>, vcg::Color4<unsigned char>>, std::allocator<std::pair<vcg::Point3<float>, vcg::Color4<unsigned char>>>>::_Vector_impl_data" }
%"struct.std::_Vector_base<std::pair<vcg::Point3<float>, vcg::Color4<unsigned char>>, std::allocator<std::pair<vcg::Point3<float>, vcg::Color4<unsigned char>>>>::_Vector_impl_data" = type { ptr, ptr, ptr }

; Function Attrs: mustprogress nounwind uwtable
define linkonce_odr void @_ZN9__gnu_cxx17__normal_iteratorIPSt4pairIN3vcg6Point3IfEENS2_6Color4IhEEESt6vectorIS7_SaIS7_EEEC2ERKS8_(ptr noundef nonnull align 8 dereferenceable(8) %0, ptr noundef nonnull align 8 dereferenceable(8) %1) unnamed_addr #4 comdat align 2 {
  %3 = alloca ptr, align 8
  %4 = alloca ptr, align 8
  store ptr %0, ptr %3, align 8
  store ptr %1, ptr %4, align 8
  %5 = load ptr, ptr %3, align 8
  %6 = getelementptr inbounds %"class.__gnu_cxx::__normal_iterator.249", ptr %5, i32 0, i32 0
  %7 = load ptr, ptr %4, align 8
  %8 = load ptr, ptr %7, align 8
  store ptr %8, ptr %6, align 8
  ret void
}

; Function Attrs: mustprogress nounwind uwtable
define linkonce_odr noundef nonnull align 4 dereferenceable(16) ptr @_ZNK9__gnu_cxx17__normal_iteratorIPSt4pairIN3vcg6Point3IfEENS2_6Color4IhEEESt6vectorIS7_SaIS7_EEEixEl(ptr noundef nonnull align 8 dereferenceable(8) %0, i64 noundef %1) #4 comdat align 2 {
  %3 = alloca ptr, align 8
  %4 = alloca i64, align 8
  store ptr %0, ptr %3, align 8
  store i64 %1, ptr %4, align 8
  %5 = load ptr, ptr %3, align 8
  %6 = getelementptr inbounds %"class.__gnu_cxx::__normal_iterator.249", ptr %5, i32 0, i32 0
  %7 = load ptr, ptr %6, align 8
  %8 = load i64, ptr %4, align 8
  %9 = getelementptr inbounds %"struct.std::pair.247", ptr %7, i64 %8
  ret ptr %9
}

; Function Attrs: mustprogress nounwind uwtable
define linkonce_odr ptr @_ZNSt6vectorISt4pairIN3vcg6Point3IfEENS1_6Color4IhEEESaIS6_EE5beginEv(ptr noundef nonnull align 8 dereferenceable(24) %0) #4 comdat align 2 {
  %2 = alloca %"class.__gnu_cxx::__normal_iterator.249", align 8
  %3 = alloca ptr, align 8
  store ptr %0, ptr %3, align 8
  %4 = load ptr, ptr %3, align 8
  %5 = getelementptr inbounds %"struct.std::_Vector_base.195", ptr %4, i32 0, i32 0
  %6 = getelementptr inbounds %"struct.std::_Vector_base<std::pair<vcg::Point3<float>, vcg::Color4<unsigned char>>, std::allocator<std::pair<vcg::Point3<float>, vcg::Color4<unsigned char>>>>::_Vector_impl_data", ptr %5, i32 0, i32 0
  call void @_ZN9__gnu_cxx17__normal_iteratorIPSt4pairIN3vcg6Point3IfEENS2_6Color4IhEEESt6vectorIS7_SaIS7_EEEC2ERKS8_(ptr noundef nonnull align 8 dereferenceable(8) %2, ptr noundef nonnull align 8 dereferenceable(8) %6) #3
  %7 = getelementptr inbounds %"class.__gnu_cxx::__normal_iterator.249", ptr %2, i32 0, i32 0
  %8 = load ptr, ptr %7, align 8
  ret ptr %8
}

; Function Attrs: mustprogress nounwind uwtable
define linkonce_odr noundef i32 @_ZN3vcg10GL_TYPE_NMIfE6SCALAREv() #4 comdat align 2 {
  ret i32 5126
}

; Function Attrs: mustprogress nounwind uwtable
define linkonce_odr noundef i64 @_ZNKSt6vectorISt4pairIN3vcg6Point3IfEENS1_6Color4IhEEESaIS6_EE4sizeEv(ptr noundef nonnull align 8 dereferenceable(24) %0) #4 comdat align 2 {
  %2 = alloca ptr, align 8
  store ptr %0, ptr %2, align 8
  %3 = load ptr, ptr %2, align 8
  %4 = getelementptr inbounds %"struct.std::_Vector_base.195", ptr %3, i32 0, i32 0
  %5 = getelementptr inbounds %"struct.std::_Vector_base<std::pair<vcg::Point3<float>, vcg::Color4<unsigned char>>, std::allocator<std::pair<vcg::Point3<float>, vcg::Color4<unsigned char>>>>::_Vector_impl_data", ptr %4, i32 0, i32 1
  %6 = load ptr, ptr %5, align 8
  %7 = getelementptr inbounds %"struct.std::_Vector_base.195", ptr %3, i32 0, i32 0
  %8 = getelementptr inbounds %"struct.std::_Vector_base<std::pair<vcg::Point3<float>, vcg::Color4<unsigned char>>, std::allocator<std::pair<vcg::Point3<float>, vcg::Color4<unsigned char>>>>::_Vector_impl_data", ptr %7, i32 0, i32 0
  %9 = load ptr, ptr %8, align 8
  %10 = ptrtoint ptr %6 to i64
  %11 = ptrtoint ptr %9 to i64
  %12 = sub i64 %10, %11
  %13 = sdiv exact i64 %12, 16
  ret i64 %13
}

; Function Attrs: mustprogress uwtable
define void @_ZN18DecorateBasePlugin14DrawLineVectorERSt6vectorISt4pairIN3vcg6Point3IfEENS2_6Color4IhEEESaIS7_EE(ptr noundef nonnull align 8 dereferenceable(192) %0, ptr noundef nonnull align 8 dereferenceable(24) %1) #5 align 2 {
  %3 = alloca ptr, align 8
  %4 = alloca ptr, align 8
  %5 = alloca %"class.__gnu_cxx::__normal_iterator.249", align 8
  %6 = alloca %"class.__gnu_cxx::__normal_iterator.249", align 8
  store ptr %0, ptr %3, align 8
  store ptr %1, ptr %4, align 8
  call void @glPushAttrib(i32 noundef 10497)
  call void @glDisable(i32 noundef 2896)
  call void @glDepthFunc(i32 noundef 515)
  call void @glEnable(i32 noundef 2848)
  call void @glEnable(i32 noundef 3042)
  call void @glBlendFunc(i32 noundef 770, i32 noundef 771)
  call void @glLineWidth(float noundef 1.000000e+00)
  call void @glDepthRange(double noundef 0.000000e+00, double noundef 0x3FEFF7CED916872B)
  %7 = load ptr, ptr %4, align 8
  %8 = call noundef i64 @_ZNKSt6vectorISt4pairIN3vcg6Point3IfEENS1_6Color4IhEEESaIS6_EE4sizeEv(ptr noundef nonnull align 8 dereferenceable(24) %7) #3
  %9 = icmp ugt i64 %8, 0
  br i1 %9, label %10, label %25

10:                                               ; preds = %2
  call void @glEnableClientState(i32 noundef 32884)
  call void @glEnableClientState(i32 noundef 32886)
  %11 = call noundef i32 @_ZN3vcg10GL_TYPE_NMIfE6SCALAREv()
  %12 = load ptr, ptr %4, align 8
  %13 = call ptr @_ZNSt6vectorISt4pairIN3vcg6Point3IfEENS1_6Color4IhEEESaIS6_EE5beginEv(ptr noundef nonnull align 8 dereferenceable(24) %12) #3
  %14 = getelementptr inbounds %"class.__gnu_cxx::__normal_iterator.249", ptr %5, i32 0, i32 0
  store ptr %13, ptr %14, align 8
  %15 = call noundef nonnull align 4 dereferenceable(16) ptr @_ZNK9__gnu_cxx17__normal_iteratorIPSt4pairIN3vcg6Point3IfEENS2_6Color4IhEEESt6vectorIS7_SaIS7_EEEixEl(ptr noundef nonnull align 8 dereferenceable(8) %5, i64 noundef 0) #3
  %16 = getelementptr inbounds %"struct.std::pair.247", ptr %15, i32 0, i32 0
  call void @glVertexPointer(i32 noundef 3, i32 noundef %11, i32 noundef 16, ptr noundef %16)
  %17 = load ptr, ptr %4, align 8
  %18 = call ptr @_ZNSt6vectorISt4pairIN3vcg6Point3IfEENS1_6Color4IhEEESaIS6_EE5beginEv(ptr noundef nonnull align 8 dereferenceable(24) %17) #3
  %19 = getelementptr inbounds %"class.__gnu_cxx::__normal_iterator.249", ptr %6, i32 0, i32 0
  store ptr %18, ptr %19, align 8
  %20 = call noundef nonnull align 4 dereferenceable(16) ptr @_ZNK9__gnu_cxx17__normal_iteratorIPSt4pairIN3vcg6Point3IfEENS2_6Color4IhEEESt6vectorIS7_SaIS7_EEEixEl(ptr noundef nonnull align 8 dereferenceable(8) %6, i64 noundef 0) #3
  %21 = getelementptr inbounds %"struct.std::pair.247", ptr %20, i32 0, i32 1
  call void @glColorPointer(i32 noundef 4, i32 noundef 5121, i32 noundef 16, ptr noundef %21)
  %22 = load ptr, ptr %4, align 8
  %23 = call noundef i64 @_ZNKSt6vectorISt4pairIN3vcg6Point3IfEENS1_6Color4IhEEESaIS6_EE4sizeEv(ptr noundef nonnull align 8 dereferenceable(24) %22) #3
  %24 = trunc i64 %23 to i32
  call void @glDrawArrays(i32 noundef 1, i32 noundef 0, i32 noundef %24)
  call void @glDisableClientState(i32 noundef 32886)
  call void @glDisableClientState(i32 noundef 32884)
  br label %25

25:                                               ; preds = %10, %2
  call void @glPopAttrib()
  ret void
}