; Function Attrs: mustprogress uwtable
define void @_ZN18DecorateBasePlugin14DrawLineVectorERSt6vectorISt4pairIN3vcg6Point3IfEENS2_6Color4IhEEESaIS7_EE(ptr nocapture nonnull readnone align 8 %0, ptr nocapture noundef nonnull readonly align 8 dereferenceable(24) %1) local_unnamed_addr #9 align 2 {
  tail call void @glPushAttrib(i32 noundef 10497)
  tail call void @glDisable(i32 noundef 2896)
  tail call void @glDepthFunc(i32 noundef 515)
  tail call void @glEnable(i32 noundef 2848)
  tail call void @glEnable(i32 noundef 3042)
  tail call void @glBlendFunc(i32 noundef 770, i32 noundef 771)
  tail call void @glLineWidth(float noundef 1.000000e+00)
  tail call void @glDepthRange(double noundef 0.000000e+00, double noundef 0x3FEFF7CED916872B)
  %3 = getelementptr inbounds i8, ptr %1, i64 8
  %4 = load ptr, ptr %3, align 8
  %5 = load ptr, ptr %1, align 8
  %.not = icmp eq ptr %4, %5
  br i1 %.not, label %17, label %6

6:                                                ; preds = %2
  tail call void @glEnableClientState(i32 noundef 32884)
  tail call void @glEnableClientState(i32 noundef 32886)
  %7 = load ptr, ptr %1, align 8
  tail call void @glVertexPointer(i32 noundef 3, i32 noundef 5126, i32 noundef 16, ptr noundef nonnull %7)
  %8 = load ptr, ptr %1, align 8
  %9 = getelementptr inbounds i8, ptr %8, i64 12
  tail call void @glColorPointer(i32 noundef 4, i32 noundef 5121, i32 noundef 16, ptr noundef nonnull %9)
  %10 = load ptr, ptr %3, align 8
  %11 = load ptr, ptr %1, align 8
  %12 = ptrtoint ptr %10 to i64
  %13 = ptrtoint ptr %11 to i64
  %14 = sub i64 %12, %13
  %15 = lshr exact i64 %14, 4
  %16 = trunc i64 %15 to i32
  tail call void @glDrawArrays(i32 noundef 1, i32 noundef 0, i32 noundef %16)
  tail call void @glDisableClientState(i32 noundef 32886)
  tail call void @glDisableClientState(i32 noundef 32884)
  br label %17

17:                                               ; preds = %6, %2
  tail call void @glPopAttrib()
  ret void
}